; Function Attrs: mustprogress nofree norecurse nosync nounwind willreturn memory(argmem: read) uwtable
define hidden range(i32 0, 3) i32 @av1_get_pred_context_uni_comp_ref_p1(ptr nocapture noundef readonly %0) local_unnamed_addr #2 {
  %2 = getelementptr inbounds i8, ptr %0, i64 10636
  %3 = load i8, ptr %2, align 1
  %4 = zext i8 %3 to i32
  %5 = getelementptr inbounds i8, ptr %0, i64 10637
  %6 = load i8, ptr %5, align 1
  %7 = zext i8 %6 to i32
  %8 = getelementptr inbounds i8, ptr %0, i64 10638
  %9 = load i8, ptr %8, align 1
  %10 = zext i8 %9 to i32
  %11 = add nuw nsw i32 %10, %7
  %12 = icmp eq i32 %11, %4
  %13 = icmp ugt i32 %11, %4
  %14 = select i1 %13, i32 0, i32 2
  %15 = select i1 %12, i32 1, i32 %14
  ret i32 %15
}